
main.elf:     file format elf32-littlearm
main.elf
architecture: arm, flags 0x00000112:
EXEC_P, HAS_SYMS, D_PAGED
start address 0x08000675

Program Header:
    LOAD off    0x00010000 vaddr 0x08000000 paddr 0x08000000 align 2**16
         filesz 0x000007d4 memsz 0x000007d4 flags rwx
    LOAD off    0x00020000 vaddr 0x20000000 paddr 0x080007d4 align 2**16
         filesz 0x00000428 memsz 0x00000648 flags rw-
private flags = 5000200: [Version5 EABI] [soft-float ABI]

Sections:
Idx Name          Size      VMA       LMA       File off  Algn
  0 .isr_vector   000001e4  08000000  08000000  00010000  2**0
                  CONTENTS, ALLOC, LOAD, READONLY, DATA
  1 .text         000005e4  080001e4  080001e4  000101e4  2**2
                  CONTENTS, ALLOC, LOAD, READONLY, CODE
  2 .init_array   00000008  080007c8  080007c8  000107c8  2**2
                  CONTENTS, ALLOC, LOAD, DATA
  3 .fini_array   00000004  080007d0  080007d0  000107d0  2**2
                  CONTENTS, ALLOC, LOAD, DATA
  4 .data         00000428  20000000  080007d4  00020000  2**3
                  CONTENTS, ALLOC, LOAD, DATA
  5 .bss          00000020  20000428  08000bfc  00020428  2**2
                  ALLOC
  6 ._user_heap_stack 00000200  20000448  08000c1c  00020428  2**0
                  ALLOC
  7 .ARM.attributes 00000029  00000000  00000000  00020428  2**0
                  CONTENTS, READONLY
  8 .comment      0000006e  00000000  00000000  00020451  2**0
                  CONTENTS, READONLY
  9 .debug_frame  000000d8  00000000  00000000  000204c0  2**2
                  CONTENTS, READONLY, DEBUGGING
SYMBOL TABLE:
08000000 l    d  .isr_vector	00000000 .isr_vector
080001e4 l    d  .text	00000000 .text
080007c8 l    d  .init_array	00000000 .init_array
080007d0 l    d  .fini_array	00000000 .fini_array
20000000 l    d  .data	00000000 .data
20000428 l    d  .bss	00000000 .bss
20000448 l    d  ._user_heap_stack	00000000 ._user_heap_stack
00000000 l    d  .ARM.attributes	00000000 .ARM.attributes
00000000 l    d  .comment	00000000 .comment
00000000 l    d  .debug_frame	00000000 .debug_frame
00000000 l    df *ABS*	00000000 ../src/startup_stm32f10x_hd.o
f1e0f85f l       *ABS*	00000000 BootRAM
08000680 l       .text	00000000 LoopCopyDataInit
08000678 l       .text	00000000 CopyDataInit
08000694 l       .text	00000000 LoopFillZerobss
0800068e l       .text	00000000 FillZerobss
080006b8 l       .text	00000000 Infinite_Loop
00000000 l    df *ABS*	00000000 crtstuff.c
080007b0 l     O .text	00000000 __EH_FRAME_BEGIN__
080001e4 l     F .text	00000000 deregister_tm_clones
08000204 l     F .text	00000000 register_tm_clones
08000228 l     F .text	00000000 __do_global_dtors_aux
20000428 l       .bss	00000000 completed.6514
080007d0 l     O .fini_array	00000000 __do_global_dtors_aux_fini_array_entry
08000250 l     F .text	00000000 frame_dummy
2000042c l       .bss	00000000 object.6519
080007cc l     O .init_array	00000000 __frame_dummy_init_array_entry
00000000 l    df *ABS*	00000000 main.c
00000000 l    df *ABS*	00000000 stm32f10x_it.c
00000000 l    df *ABS*	00000000 system_stm32f10x.c
08000398 l     F .text	0000000a SetSysClock
080003a4 l     F .text	000000f8 SetSysClockTo72
00000000 l    df *ABS*	00000000 stm32f10x_gpio.c
00000000 l    df *ABS*	00000000 stm32f10x_rcc.c
00000000 l    df *ABS*	00000000 __call_atexit.c
080006bc l     F .text	00000014 register_fini
00000000 l    df *ABS*	00000000 atexit.c
00000000 l    df *ABS*	00000000 fini.c
00000000 l    df *ABS*	00000000 __atexit.c
00000000 l    df *ABS*	00000000 impure.c
20000000 l     O .data	00000428 impure_data
00000000 l    df *ABS*	00000000 /mnt/data/dev/embedded/toolchain/gcc-arm-none-eabi-5_2-2015q4/bin/../lib/gcc/arm-none-eabi/5.2.1/armv7-m/crti.o
00000000 l    df *ABS*	00000000 /mnt/data/dev/embedded/toolchain/gcc-arm-none-eabi-5_2-2015q4/bin/../lib/gcc/arm-none-eabi/5.2.1/armv7-m/crtn.o
00000000 l    df *ABS*	00000000 
080007d4 l       .fini_array	00000000 __fini_array_end
20000428 l       .bss	00000000 __bss_start__
20000448 l       .bss	00000000 __bss_end__
080007d0 l       .fini_array	00000000 __fini_array_start
080007d0 l       .init_array	00000000 __init_array_end
080007c8 l       .init_array	00000000 __preinit_array_end
080007c8 l       .init_array	00000000 __init_array_start
080007c8 l       .init_array	00000000 __preinit_array_start
080006b8  w    F .text	00000002 EXTI2_IRQHandler
080006b8  w    F .text	00000002 TIM8_TRG_COM_IRQHandler
080006b8  w    F .text	00000002 TIM8_CC_IRQHandler
08000324 g     F .text	00000004 DebugMon_Handler
080006b8  w    F .text	00000002 TIM1_CC_IRQHandler
08000310 g     F .text	00000002 HardFault_Handler
00000200 g       *ABS*	00000000 _Min_Stack_Size
080006b8  w    F .text	00000002 TIM6_IRQHandler
0800032c g     F .text	00000004 SysTick_Handler
080006b8  w    F .text	00000002 PVD_IRQHandler
080006b8  w    F .text	00000002 SDIO_IRQHandler
080007d4 g       .fini_array	00000000 _sidata
08000328 g     F .text	00000004 PendSV_Handler
0800030c g     F .text	00000004 NMI_Handler
080007c8 g       .init_array	00000000 __exidx_end
080006b8  w    F .text	00000002 EXTI3_IRQHandler
080007c8 g       .text	00000000 _etext
20000428 g       .bss	00000000 _sbss
20000428 g     O .data	00000000 .hidden __TMC_END__
080006b8  w    F .text	00000002 EXTI0_IRQHandler
080006b8  w    F .text	00000002 I2C2_EV_IRQHandler
0800031c g     F .text	00000002 UsageFault_Handler
0800063c g     F .text	00000038 RCC_APB2PeriphClockCmd
080006b8  w    F .text	00000002 ADC1_2_IRQHandler
0800049c g     F .text	00000170 GPIO_Init
20000000 g       .data	00000000 _sdata
080006b8  w    F .text	00000002 SPI1_IRQHandler
080006b8  w    F .text	00000002 TAMPER_IRQHandler
080006b8  w    F .text	00000002 TIM8_UP_IRQHandler
080007c8 g       .init_array	00000000 __exidx_start
080007ac g     O .text	00000004 _global_impure_ptr
080006b8  w    F .text	00000002 DMA2_Channel2_IRQHandler
080006b8  w    F .text	00000002 DMA1_Channel4_IRQHandler
080007b0 g     F .text	00000000 _init
080006b8  w    F .text	00000002 USART3_IRQHandler
080006dc g     F .text	00000028 __libc_fini_array
080006b8  w    F .text	00000002 RTC_IRQHandler
20000448 g       .bss	00000000 _ebss
080006b8  w    F .text	00000002 DMA1_Channel7_IRQHandler
08000674  w    F .text	00000030 Reset_Handler
080006b8  w    F .text	00000002 CAN1_RX1_IRQHandler
080006b8  w    F .text	00000002 UART5_IRQHandler
080006b8  w    F .text	00000002 ADC3_IRQHandler
080006b8  w    F .text	00000002 TIM4_IRQHandler
0800060c g     F .text	00000030 GPIO_WriteBit
080006b8  w    F .text	00000002 DMA2_Channel1_IRQHandler
080006b8  w    F .text	00000002 I2C1_EV_IRQHandler
080006b8  w    F .text	00000002 DMA1_Channel6_IRQHandler
080006b8  w    F .text	00000002 UART4_IRQHandler
080006b8  w    F .text	00000002 TIM3_IRQHandler
080006b8  w    F .text	00000002 RCC_IRQHandler
080006b8  w    F .text	00000002 TIM1_TRG_COM_IRQHandler
00000000 g       *ABS*	00000000 _Min_Heap_Size
080006b8  w    F .text	00000002 DMA1_Channel1_IRQHandler
080006b8 g       .text	00000002 Default_Handler
080006b8  w    F .text	00000002 EXTI15_10_IRQHandler
08000704 g     F .text	000000a4 __register_exitproc
080006b8  w    F .text	00000002 TIM7_IRQHandler
080006b8  w    F .text	00000002 TIM5_IRQHandler
08000288 g     F .text	00000020 delayLoop
080006b8  w    F .text	00000002 EXTI9_5_IRQHandler
080006b8  w    F .text	00000002 SPI2_IRQHandler
08000314 g     F .text	00000002 MemManage_Handler
080002a8 g     F .text	00000064 main
08000320 g     F .text	00000004 SVC_Handler
080006b8  w    F .text	00000002 DMA1_Channel5_IRQHandler
080006b8  w    F .text	00000002 EXTI4_IRQHandler
080006b8  w    F .text	00000002 USB_LP_CAN1_RX0_IRQHandler
20000444 g     O .bss	00000004 GPIO_InitStructure
08000330 g     F .text	00000068 SystemInit
080007bc g     F .text	00000000 _fini
080006b8  w    F .text	00000002 USB_HP_CAN1_TX_IRQHandler
080006d0 g     F .text	0000000c atexit
080006b8  w    F .text	00000002 DMA1_Channel3_IRQHandler
080006b8  w    F .text	00000002 FSMC_IRQHandler
080006b8  w    F .text	00000002 TIM1_UP_IRQHandler
080006b8  w    F .text	00000002 WWDG_IRQHandler
080006b8  w    F .text	00000002 TIM2_IRQHandler
080006b8  w    F .text	00000002 TIM1_BRK_IRQHandler
2000c000 g       *ABS*	00000000 _estack
080006b8  w    F .text	00000002 EXTI1_IRQHandler
20000428 g       .data	00000000 _edata
080006b8  w    F .text	00000002 RTCAlarm_IRQHandler
080006b8  w    F .text	00000002 DMA2_Channel4_5_IRQHandler
080006b8  w    F .text	00000002 USART2_IRQHandler
08000000 g     O .isr_vector	00000000 g_pfnVectors
080006b8  w    F .text	00000002 I2C2_ER_IRQHandler
080006b8  w    F .text	00000002 DMA1_Channel2_IRQHandler
080006b8  w    F .text	00000002 TIM8_BRK_IRQHandler
080006b8  w    F .text	00000002 CAN1_SCE_IRQHandler
080006b8  w    F .text	00000002 FLASH_IRQHandler
08000318 g     F .text	00000002 BusFault_Handler
080006b8  w    F .text	00000002 USART1_IRQHandler
080006b8  w    F .text	00000002 SPI3_IRQHandler
080006b8  w    F .text	00000002 I2C1_ER_IRQHandler
080006b8  w    F .text	00000002 USBWakeUp_IRQHandler
080006b8  w    F .text	00000002 DMA2_Channel3_IRQHandler



Disassembly of section .text:

080001e4 <deregister_tm_clones>:
 80001e4:	4b04      	ldr	r3, [pc, #16]	; (80001f8 <deregister_tm_clones+0x14>)
 80001e6:	4805      	ldr	r0, [pc, #20]	; (80001fc <deregister_tm_clones+0x18>)
 80001e8:	1a1b      	subs	r3, r3, r0
 80001ea:	2b06      	cmp	r3, #6
 80001ec:	d902      	bls.n	80001f4 <deregister_tm_clones+0x10>
 80001ee:	4b04      	ldr	r3, [pc, #16]	; (8000200 <deregister_tm_clones+0x1c>)
 80001f0:	b103      	cbz	r3, 80001f4 <deregister_tm_clones+0x10>
 80001f2:	4718      	bx	r3
 80001f4:	4770      	bx	lr
 80001f6:	bf00      	nop
 80001f8:	2000042b 	.word	0x2000042b
 80001fc:	20000428 	.word	0x20000428
 8000200:	00000000 	.word	0x00000000

08000204 <register_tm_clones>:
 8000204:	4905      	ldr	r1, [pc, #20]	; (800021c <register_tm_clones+0x18>)
 8000206:	4806      	ldr	r0, [pc, #24]	; (8000220 <register_tm_clones+0x1c>)
 8000208:	1a09      	subs	r1, r1, r0
 800020a:	1089      	asrs	r1, r1, #2
 800020c:	eb01 71d1 	add.w	r1, r1, r1, lsr #31
 8000210:	1049      	asrs	r1, r1, #1
 8000212:	d002      	beq.n	800021a <register_tm_clones+0x16>
 8000214:	4b03      	ldr	r3, [pc, #12]	; (8000224 <register_tm_clones+0x20>)
 8000216:	b103      	cbz	r3, 800021a <register_tm_clones+0x16>
 8000218:	4718      	bx	r3
 800021a:	4770      	bx	lr
 800021c:	20000428 	.word	0x20000428
 8000220:	20000428 	.word	0x20000428
 8000224:	00000000 	.word	0x00000000

08000228 <__do_global_dtors_aux>:
 8000228:	b510      	push	{r4, lr}
 800022a:	4c06      	ldr	r4, [pc, #24]	; (8000244 <__do_global_dtors_aux+0x1c>)
 800022c:	7823      	ldrb	r3, [r4, #0]
 800022e:	b943      	cbnz	r3, 8000242 <__do_global_dtors_aux+0x1a>
 8000230:	f7ff ffd8 	bl	80001e4 <deregister_tm_clones>
 8000234:	4b04      	ldr	r3, [pc, #16]	; (8000248 <__do_global_dtors_aux+0x20>)
 8000236:	b113      	cbz	r3, 800023e <__do_global_dtors_aux+0x16>
 8000238:	4804      	ldr	r0, [pc, #16]	; (800024c <__do_global_dtors_aux+0x24>)
 800023a:	f3af 8000 	nop.w
 800023e:	2301      	movs	r3, #1
 8000240:	7023      	strb	r3, [r4, #0]
 8000242:	bd10      	pop	{r4, pc}
 8000244:	20000428 	.word	0x20000428
 8000248:	00000000 	.word	0x00000000
 800024c:	080007b0 	.word	0x080007b0

08000250 <frame_dummy>:
 8000250:	b508      	push	{r3, lr}
 8000252:	4b08      	ldr	r3, [pc, #32]	; (8000274 <frame_dummy+0x24>)
 8000254:	b11b      	cbz	r3, 800025e <frame_dummy+0xe>
 8000256:	4908      	ldr	r1, [pc, #32]	; (8000278 <frame_dummy+0x28>)
 8000258:	4808      	ldr	r0, [pc, #32]	; (800027c <frame_dummy+0x2c>)
 800025a:	f3af 8000 	nop.w
 800025e:	4808      	ldr	r0, [pc, #32]	; (8000280 <frame_dummy+0x30>)
 8000260:	6803      	ldr	r3, [r0, #0]
 8000262:	b913      	cbnz	r3, 800026a <frame_dummy+0x1a>
 8000264:	e8bd 4008 	ldmia.w	sp!, {r3, lr}
 8000268:	e7cc      	b.n	8000204 <register_tm_clones>
 800026a:	4b06      	ldr	r3, [pc, #24]	; (8000284 <frame_dummy+0x34>)
 800026c:	2b00      	cmp	r3, #0
 800026e:	d0f9      	beq.n	8000264 <frame_dummy+0x14>
 8000270:	4798      	blx	r3
 8000272:	e7f7      	b.n	8000264 <frame_dummy+0x14>
 8000274:	00000000 	.word	0x00000000
 8000278:	2000042c 	.word	0x2000042c
 800027c:	080007b0 	.word	0x080007b0
 8000280:	20000428 	.word	0x20000428
 8000284:	00000000 	.word	0x00000000

08000288 <delayLoop>:
 8000288:	b082      	sub	sp, #8
 800028a:	4b06      	ldr	r3, [pc, #24]	; (80002a4 <delayLoop+0x1c>)
 800028c:	9301      	str	r3, [sp, #4]
 800028e:	e002      	b.n	8000296 <delayLoop+0xe>
 8000290:	9b01      	ldr	r3, [sp, #4]
 8000292:	3b01      	subs	r3, #1
 8000294:	9301      	str	r3, [sp, #4]
 8000296:	9b01      	ldr	r3, [sp, #4]
 8000298:	2b00      	cmp	r3, #0
 800029a:	d1f9      	bne.n	8000290 <delayLoop+0x8>
 800029c:	bf00      	nop
 800029e:	b002      	add	sp, #8
 80002a0:	4770      	bx	lr
 80002a2:	bf00      	nop
 80002a4:	0007a120 	.word	0x0007a120

080002a8 <main>:
 80002a8:	b508      	push	{r3, lr}
 80002aa:	f000 f841 	bl	8000330 <SystemInit>
 80002ae:	2101      	movs	r1, #1
 80002b0:	2008      	movs	r0, #8
 80002b2:	f000 f9c3 	bl	800063c <RCC_APB2PeriphClockCmd>
 80002b6:	4b13      	ldr	r3, [pc, #76]	; (8000304 <main+0x5c>)
 80002b8:	2203      	movs	r2, #3
 80002ba:	801a      	strh	r2, [r3, #0]
 80002bc:	4b11      	ldr	r3, [pc, #68]	; (8000304 <main+0x5c>)
 80002be:	2210      	movs	r2, #16
 80002c0:	70da      	strb	r2, [r3, #3]
 80002c2:	4b10      	ldr	r3, [pc, #64]	; (8000304 <main+0x5c>)
 80002c4:	2203      	movs	r2, #3
 80002c6:	709a      	strb	r2, [r3, #2]
 80002c8:	490e      	ldr	r1, [pc, #56]	; (8000304 <main+0x5c>)
 80002ca:	480f      	ldr	r0, [pc, #60]	; (8000308 <main+0x60>)
 80002cc:	f000 f8e6 	bl	800049c <GPIO_Init>
 80002d0:	2201      	movs	r2, #1
 80002d2:	2101      	movs	r1, #1
 80002d4:	480c      	ldr	r0, [pc, #48]	; (8000308 <main+0x60>)
 80002d6:	f000 f999 	bl	800060c <GPIO_WriteBit>
 80002da:	2200      	movs	r2, #0
 80002dc:	2102      	movs	r1, #2
 80002de:	480a      	ldr	r0, [pc, #40]	; (8000308 <main+0x60>)
 80002e0:	f000 f994 	bl	800060c <GPIO_WriteBit>
 80002e4:	f7ff ffd0 	bl	8000288 <delayLoop>
 80002e8:	2201      	movs	r2, #1
 80002ea:	2102      	movs	r1, #2
 80002ec:	4806      	ldr	r0, [pc, #24]	; (8000308 <main+0x60>)
 80002ee:	f000 f98d 	bl	800060c <GPIO_WriteBit>
 80002f2:	2200      	movs	r2, #0
 80002f4:	2101      	movs	r1, #1
 80002f6:	4804      	ldr	r0, [pc, #16]	; (8000308 <main+0x60>)
 80002f8:	f000 f988 	bl	800060c <GPIO_WriteBit>
 80002fc:	f7ff ffc4 	bl	8000288 <delayLoop>
 8000300:	e7e6      	b.n	80002d0 <main+0x28>
 8000302:	bf00      	nop
 8000304:	20000444 	.word	0x20000444
 8000308:	40010c00 	.word	0x40010c00

0800030c <NMI_Handler>:
 800030c:	bf00      	nop
 800030e:	4770      	bx	lr

08000310 <HardFault_Handler>:
 8000310:	e7fe      	b.n	8000310 <HardFault_Handler>
 8000312:	bf00      	nop

08000314 <MemManage_Handler>:
 8000314:	e7fe      	b.n	8000314 <MemManage_Handler>
 8000316:	bf00      	nop

08000318 <BusFault_Handler>:
 8000318:	e7fe      	b.n	8000318 <BusFault_Handler>
 800031a:	bf00      	nop

0800031c <UsageFault_Handler>:
 800031c:	e7fe      	b.n	800031c <UsageFault_Handler>
 800031e:	bf00      	nop

08000320 <SVC_Handler>:
 8000320:	bf00      	nop
 8000322:	4770      	bx	lr

08000324 <DebugMon_Handler>:
 8000324:	bf00      	nop
 8000326:	4770      	bx	lr

08000328 <PendSV_Handler>:
 8000328:	bf00      	nop
 800032a:	4770      	bx	lr

0800032c <SysTick_Handler>:
 800032c:	bf00      	nop
 800032e:	4770      	bx	lr

08000330 <SystemInit>:
 8000330:	b508      	push	{r3, lr}
 8000332:	4a16      	ldr	r2, [pc, #88]	; (800038c <SystemInit+0x5c>)
 8000334:	4b15      	ldr	r3, [pc, #84]	; (800038c <SystemInit+0x5c>)
 8000336:	681b      	ldr	r3, [r3, #0]
 8000338:	f043 0301 	orr.w	r3, r3, #1
 800033c:	6013      	str	r3, [r2, #0]
 800033e:	4913      	ldr	r1, [pc, #76]	; (800038c <SystemInit+0x5c>)
 8000340:	4b12      	ldr	r3, [pc, #72]	; (800038c <SystemInit+0x5c>)
 8000342:	685a      	ldr	r2, [r3, #4]
 8000344:	4b12      	ldr	r3, [pc, #72]	; (8000390 <SystemInit+0x60>)
 8000346:	4013      	ands	r3, r2
 8000348:	604b      	str	r3, [r1, #4]
 800034a:	4a10      	ldr	r2, [pc, #64]	; (800038c <SystemInit+0x5c>)
 800034c:	4b0f      	ldr	r3, [pc, #60]	; (800038c <SystemInit+0x5c>)
 800034e:	681b      	ldr	r3, [r3, #0]
 8000350:	f023 7384 	bic.w	r3, r3, #17301504	; 0x1080000
 8000354:	f423 3380 	bic.w	r3, r3, #65536	; 0x10000
 8000358:	6013      	str	r3, [r2, #0]
 800035a:	4a0c      	ldr	r2, [pc, #48]	; (800038c <SystemInit+0x5c>)
 800035c:	4b0b      	ldr	r3, [pc, #44]	; (800038c <SystemInit+0x5c>)
 800035e:	681b      	ldr	r3, [r3, #0]
 8000360:	f423 2380 	bic.w	r3, r3, #262144	; 0x40000
 8000364:	6013      	str	r3, [r2, #0]
 8000366:	4a09      	ldr	r2, [pc, #36]	; (800038c <SystemInit+0x5c>)
 8000368:	4b08      	ldr	r3, [pc, #32]	; (800038c <SystemInit+0x5c>)
 800036a:	685b      	ldr	r3, [r3, #4]
 800036c:	f423 03fe 	bic.w	r3, r3, #8323072	; 0x7f0000
 8000370:	6053      	str	r3, [r2, #4]
 8000372:	4b06      	ldr	r3, [pc, #24]	; (800038c <SystemInit+0x5c>)
 8000374:	f44f 021f 	mov.w	r2, #10420224	; 0x9f0000
 8000378:	609a      	str	r2, [r3, #8]
 800037a:	f000 f80d 	bl	8000398 <SetSysClock>
 800037e:	4b05      	ldr	r3, [pc, #20]	; (8000394 <SystemInit+0x64>)
 8000380:	f04f 6200 	mov.w	r2, #134217728	; 0x8000000
 8000384:	609a      	str	r2, [r3, #8]
 8000386:	bf00      	nop
 8000388:	bd08      	pop	{r3, pc}
 800038a:	bf00      	nop
 800038c:	40021000 	.word	0x40021000
 8000390:	f8ff0000 	.word	0xf8ff0000
 8000394:	e000ed00 	.word	0xe000ed00

08000398 <SetSysClock>:
 8000398:	b508      	push	{r3, lr}
 800039a:	f000 f803 	bl	80003a4 <SetSysClockTo72>
 800039e:	bf00      	nop
 80003a0:	bd08      	pop	{r3, pc}
 80003a2:	bf00      	nop

080003a4 <SetSysClockTo72>:
 80003a4:	b082      	sub	sp, #8
 80003a6:	2300      	movs	r3, #0
 80003a8:	9301      	str	r3, [sp, #4]
 80003aa:	2300      	movs	r3, #0
 80003ac:	9300      	str	r3, [sp, #0]
 80003ae:	4a39      	ldr	r2, [pc, #228]	; (8000494 <SetSysClockTo72+0xf0>)
 80003b0:	4b38      	ldr	r3, [pc, #224]	; (8000494 <SetSysClockTo72+0xf0>)
 80003b2:	681b      	ldr	r3, [r3, #0]
 80003b4:	f443 3380 	orr.w	r3, r3, #65536	; 0x10000
 80003b8:	6013      	str	r3, [r2, #0]
 80003ba:	4b36      	ldr	r3, [pc, #216]	; (8000494 <SetSysClockTo72+0xf0>)
 80003bc:	681b      	ldr	r3, [r3, #0]
 80003be:	f403 3300 	and.w	r3, r3, #131072	; 0x20000
 80003c2:	9300      	str	r3, [sp, #0]
 80003c4:	9b01      	ldr	r3, [sp, #4]
 80003c6:	3301      	adds	r3, #1
 80003c8:	9301      	str	r3, [sp, #4]
 80003ca:	9b00      	ldr	r3, [sp, #0]
 80003cc:	2b00      	cmp	r3, #0
 80003ce:	d103      	bne.n	80003d8 <SetSysClockTo72+0x34>
 80003d0:	9b01      	ldr	r3, [sp, #4]
 80003d2:	f5b3 6fa0 	cmp.w	r3, #1280	; 0x500
 80003d6:	d1f0      	bne.n	80003ba <SetSysClockTo72+0x16>
 80003d8:	4b2e      	ldr	r3, [pc, #184]	; (8000494 <SetSysClockTo72+0xf0>)
 80003da:	681b      	ldr	r3, [r3, #0]
 80003dc:	f403 3300 	and.w	r3, r3, #131072	; 0x20000
 80003e0:	2b00      	cmp	r3, #0
 80003e2:	d002      	beq.n	80003ea <SetSysClockTo72+0x46>
 80003e4:	2301      	movs	r3, #1
 80003e6:	9300      	str	r3, [sp, #0]
 80003e8:	e001      	b.n	80003ee <SetSysClockTo72+0x4a>
 80003ea:	2300      	movs	r3, #0
 80003ec:	9300      	str	r3, [sp, #0]
 80003ee:	9b00      	ldr	r3, [sp, #0]
 80003f0:	2b01      	cmp	r3, #1
 80003f2:	d14b      	bne.n	800048c <SetSysClockTo72+0xe8>
 80003f4:	4a28      	ldr	r2, [pc, #160]	; (8000498 <SetSysClockTo72+0xf4>)
 80003f6:	4b28      	ldr	r3, [pc, #160]	; (8000498 <SetSysClockTo72+0xf4>)
 80003f8:	681b      	ldr	r3, [r3, #0]
 80003fa:	f043 0310 	orr.w	r3, r3, #16
 80003fe:	6013      	str	r3, [r2, #0]
 8000400:	4a25      	ldr	r2, [pc, #148]	; (8000498 <SetSysClockTo72+0xf4>)
 8000402:	4b25      	ldr	r3, [pc, #148]	; (8000498 <SetSysClockTo72+0xf4>)
 8000404:	681b      	ldr	r3, [r3, #0]
 8000406:	f023 0303 	bic.w	r3, r3, #3
 800040a:	6013      	str	r3, [r2, #0]
 800040c:	4a22      	ldr	r2, [pc, #136]	; (8000498 <SetSysClockTo72+0xf4>)
 800040e:	4b22      	ldr	r3, [pc, #136]	; (8000498 <SetSysClockTo72+0xf4>)
 8000410:	681b      	ldr	r3, [r3, #0]
 8000412:	f043 0302 	orr.w	r3, r3, #2
 8000416:	6013      	str	r3, [r2, #0]
 8000418:	4a1e      	ldr	r2, [pc, #120]	; (8000494 <SetSysClockTo72+0xf0>)
 800041a:	4b1e      	ldr	r3, [pc, #120]	; (8000494 <SetSysClockTo72+0xf0>)
 800041c:	685b      	ldr	r3, [r3, #4]
 800041e:	6053      	str	r3, [r2, #4]
 8000420:	4a1c      	ldr	r2, [pc, #112]	; (8000494 <SetSysClockTo72+0xf0>)
 8000422:	4b1c      	ldr	r3, [pc, #112]	; (8000494 <SetSysClockTo72+0xf0>)
 8000424:	685b      	ldr	r3, [r3, #4]
 8000426:	6053      	str	r3, [r2, #4]
 8000428:	4a1a      	ldr	r2, [pc, #104]	; (8000494 <SetSysClockTo72+0xf0>)
 800042a:	4b1a      	ldr	r3, [pc, #104]	; (8000494 <SetSysClockTo72+0xf0>)
 800042c:	685b      	ldr	r3, [r3, #4]
 800042e:	f443 6380 	orr.w	r3, r3, #1024	; 0x400
 8000432:	6053      	str	r3, [r2, #4]
 8000434:	4a17      	ldr	r2, [pc, #92]	; (8000494 <SetSysClockTo72+0xf0>)
 8000436:	4b17      	ldr	r3, [pc, #92]	; (8000494 <SetSysClockTo72+0xf0>)
 8000438:	685b      	ldr	r3, [r3, #4]
 800043a:	f423 137c 	bic.w	r3, r3, #4128768	; 0x3f0000
 800043e:	6053      	str	r3, [r2, #4]
 8000440:	4a14      	ldr	r2, [pc, #80]	; (8000494 <SetSysClockTo72+0xf0>)
 8000442:	4b14      	ldr	r3, [pc, #80]	; (8000494 <SetSysClockTo72+0xf0>)
 8000444:	685b      	ldr	r3, [r3, #4]
 8000446:	f443 13e8 	orr.w	r3, r3, #1900544	; 0x1d0000
 800044a:	6053      	str	r3, [r2, #4]
 800044c:	4a11      	ldr	r2, [pc, #68]	; (8000494 <SetSysClockTo72+0xf0>)
 800044e:	4b11      	ldr	r3, [pc, #68]	; (8000494 <SetSysClockTo72+0xf0>)
 8000450:	681b      	ldr	r3, [r3, #0]
 8000452:	f043 7380 	orr.w	r3, r3, #16777216	; 0x1000000
 8000456:	6013      	str	r3, [r2, #0]
 8000458:	bf00      	nop
 800045a:	4b0e      	ldr	r3, [pc, #56]	; (8000494 <SetSysClockTo72+0xf0>)
 800045c:	681b      	ldr	r3, [r3, #0]
 800045e:	f003 7300 	and.w	r3, r3, #33554432	; 0x2000000
 8000462:	2b00      	cmp	r3, #0
 8000464:	d0f9      	beq.n	800045a <SetSysClockTo72+0xb6>
 8000466:	4a0b      	ldr	r2, [pc, #44]	; (8000494 <SetSysClockTo72+0xf0>)
 8000468:	4b0a      	ldr	r3, [pc, #40]	; (8000494 <SetSysClockTo72+0xf0>)
 800046a:	685b      	ldr	r3, [r3, #4]
 800046c:	f023 0303 	bic.w	r3, r3, #3
 8000470:	6053      	str	r3, [r2, #4]
 8000472:	4a08      	ldr	r2, [pc, #32]	; (8000494 <SetSysClockTo72+0xf0>)
 8000474:	4b07      	ldr	r3, [pc, #28]	; (8000494 <SetSysClockTo72+0xf0>)
 8000476:	685b      	ldr	r3, [r3, #4]
 8000478:	f043 0302 	orr.w	r3, r3, #2
 800047c:	6053      	str	r3, [r2, #4]
 800047e:	bf00      	nop
 8000480:	4b04      	ldr	r3, [pc, #16]	; (8000494 <SetSysClockTo72+0xf0>)
 8000482:	685b      	ldr	r3, [r3, #4]
 8000484:	f003 030c 	and.w	r3, r3, #12
 8000488:	2b08      	cmp	r3, #8
 800048a:	d1f9      	bne.n	8000480 <SetSysClockTo72+0xdc>
 800048c:	bf00      	nop
 800048e:	b002      	add	sp, #8
 8000490:	4770      	bx	lr
 8000492:	bf00      	nop
 8000494:	40021000 	.word	0x40021000
 8000498:	40022000 	.word	0x40022000

0800049c <GPIO_Init>:
 800049c:	b088      	sub	sp, #32
 800049e:	9001      	str	r0, [sp, #4]
 80004a0:	9100      	str	r1, [sp, #0]
 80004a2:	2300      	movs	r3, #0
 80004a4:	9307      	str	r3, [sp, #28]
 80004a6:	2300      	movs	r3, #0
 80004a8:	9304      	str	r3, [sp, #16]
 80004aa:	2300      	movs	r3, #0
 80004ac:	9306      	str	r3, [sp, #24]
 80004ae:	2300      	movs	r3, #0
 80004b0:	9303      	str	r3, [sp, #12]
 80004b2:	2300      	movs	r3, #0
 80004b4:	9305      	str	r3, [sp, #20]
 80004b6:	2300      	movs	r3, #0
 80004b8:	9302      	str	r3, [sp, #8]
 80004ba:	9b00      	ldr	r3, [sp, #0]
 80004bc:	78db      	ldrb	r3, [r3, #3]
 80004be:	f003 030f 	and.w	r3, r3, #15
 80004c2:	9307      	str	r3, [sp, #28]
 80004c4:	9b00      	ldr	r3, [sp, #0]
 80004c6:	78db      	ldrb	r3, [r3, #3]
 80004c8:	f003 0310 	and.w	r3, r3, #16
 80004cc:	2b00      	cmp	r3, #0
 80004ce:	d005      	beq.n	80004dc <GPIO_Init+0x40>
 80004d0:	9b00      	ldr	r3, [sp, #0]
 80004d2:	789b      	ldrb	r3, [r3, #2]
 80004d4:	461a      	mov	r2, r3
 80004d6:	9b07      	ldr	r3, [sp, #28]
 80004d8:	4313      	orrs	r3, r2
 80004da:	9307      	str	r3, [sp, #28]
 80004dc:	9b00      	ldr	r3, [sp, #0]
 80004de:	881b      	ldrh	r3, [r3, #0]
 80004e0:	b2db      	uxtb	r3, r3
 80004e2:	2b00      	cmp	r3, #0
 80004e4:	d044      	beq.n	8000570 <GPIO_Init+0xd4>
 80004e6:	9b01      	ldr	r3, [sp, #4]
 80004e8:	681b      	ldr	r3, [r3, #0]
 80004ea:	9305      	str	r3, [sp, #20]
 80004ec:	2300      	movs	r3, #0
 80004ee:	9306      	str	r3, [sp, #24]
 80004f0:	e038      	b.n	8000564 <GPIO_Init+0xc8>
 80004f2:	2201      	movs	r2, #1
 80004f4:	9b06      	ldr	r3, [sp, #24]
 80004f6:	fa02 f303 	lsl.w	r3, r2, r3
 80004fa:	9303      	str	r3, [sp, #12]
 80004fc:	9b00      	ldr	r3, [sp, #0]
 80004fe:	881b      	ldrh	r3, [r3, #0]
 8000500:	461a      	mov	r2, r3
 8000502:	9b03      	ldr	r3, [sp, #12]
 8000504:	4013      	ands	r3, r2
 8000506:	9304      	str	r3, [sp, #16]
 8000508:	9a04      	ldr	r2, [sp, #16]
 800050a:	9b03      	ldr	r3, [sp, #12]
 800050c:	429a      	cmp	r2, r3
 800050e:	d126      	bne.n	800055e <GPIO_Init+0xc2>
 8000510:	9b06      	ldr	r3, [sp, #24]
 8000512:	009b      	lsls	r3, r3, #2
 8000514:	9303      	str	r3, [sp, #12]
 8000516:	220f      	movs	r2, #15
 8000518:	9b03      	ldr	r3, [sp, #12]
 800051a:	fa02 f303 	lsl.w	r3, r2, r3
 800051e:	9302      	str	r3, [sp, #8]
 8000520:	9b02      	ldr	r3, [sp, #8]
 8000522:	43db      	mvns	r3, r3
 8000524:	9a05      	ldr	r2, [sp, #20]
 8000526:	4013      	ands	r3, r2
 8000528:	9305      	str	r3, [sp, #20]
 800052a:	9a07      	ldr	r2, [sp, #28]
 800052c:	9b03      	ldr	r3, [sp, #12]
 800052e:	fa02 f303 	lsl.w	r3, r2, r3
 8000532:	9a05      	ldr	r2, [sp, #20]
 8000534:	4313      	orrs	r3, r2
 8000536:	9305      	str	r3, [sp, #20]
 8000538:	9b00      	ldr	r3, [sp, #0]
 800053a:	78db      	ldrb	r3, [r3, #3]
 800053c:	2b28      	cmp	r3, #40	; 0x28
 800053e:	d105      	bne.n	800054c <GPIO_Init+0xb0>
 8000540:	2201      	movs	r2, #1
 8000542:	9b06      	ldr	r3, [sp, #24]
 8000544:	409a      	lsls	r2, r3
 8000546:	9b01      	ldr	r3, [sp, #4]
 8000548:	615a      	str	r2, [r3, #20]
 800054a:	e008      	b.n	800055e <GPIO_Init+0xc2>
 800054c:	9b00      	ldr	r3, [sp, #0]
 800054e:	78db      	ldrb	r3, [r3, #3]
 8000550:	2b48      	cmp	r3, #72	; 0x48
 8000552:	d104      	bne.n	800055e <GPIO_Init+0xc2>
 8000554:	2201      	movs	r2, #1
 8000556:	9b06      	ldr	r3, [sp, #24]
 8000558:	409a      	lsls	r2, r3
 800055a:	9b01      	ldr	r3, [sp, #4]
 800055c:	611a      	str	r2, [r3, #16]
 800055e:	9b06      	ldr	r3, [sp, #24]
 8000560:	3301      	adds	r3, #1
 8000562:	9306      	str	r3, [sp, #24]
 8000564:	9b06      	ldr	r3, [sp, #24]
 8000566:	2b07      	cmp	r3, #7
 8000568:	d9c3      	bls.n	80004f2 <GPIO_Init+0x56>
 800056a:	9b01      	ldr	r3, [sp, #4]
 800056c:	9a05      	ldr	r2, [sp, #20]
 800056e:	601a      	str	r2, [r3, #0]
 8000570:	9b00      	ldr	r3, [sp, #0]
 8000572:	881b      	ldrh	r3, [r3, #0]
 8000574:	2bff      	cmp	r3, #255	; 0xff
 8000576:	d946      	bls.n	8000606 <GPIO_Init+0x16a>
 8000578:	9b01      	ldr	r3, [sp, #4]
 800057a:	685b      	ldr	r3, [r3, #4]
 800057c:	9305      	str	r3, [sp, #20]
 800057e:	2300      	movs	r3, #0
 8000580:	9306      	str	r3, [sp, #24]
 8000582:	e03a      	b.n	80005fa <GPIO_Init+0x15e>
 8000584:	9b06      	ldr	r3, [sp, #24]
 8000586:	3308      	adds	r3, #8
 8000588:	2201      	movs	r2, #1
 800058a:	fa02 f303 	lsl.w	r3, r2, r3
 800058e:	9303      	str	r3, [sp, #12]
 8000590:	9b00      	ldr	r3, [sp, #0]
 8000592:	881b      	ldrh	r3, [r3, #0]
 8000594:	461a      	mov	r2, r3
 8000596:	9b03      	ldr	r3, [sp, #12]
 8000598:	4013      	ands	r3, r2
 800059a:	9304      	str	r3, [sp, #16]
 800059c:	9a04      	ldr	r2, [sp, #16]
 800059e:	9b03      	ldr	r3, [sp, #12]
 80005a0:	429a      	cmp	r2, r3
 80005a2:	d127      	bne.n	80005f4 <GPIO_Init+0x158>
 80005a4:	9b06      	ldr	r3, [sp, #24]
 80005a6:	009b      	lsls	r3, r3, #2
 80005a8:	9303      	str	r3, [sp, #12]
 80005aa:	220f      	movs	r2, #15
 80005ac:	9b03      	ldr	r3, [sp, #12]
 80005ae:	fa02 f303 	lsl.w	r3, r2, r3
 80005b2:	9302      	str	r3, [sp, #8]
 80005b4:	9b02      	ldr	r3, [sp, #8]
 80005b6:	43db      	mvns	r3, r3
 80005b8:	9a05      	ldr	r2, [sp, #20]
 80005ba:	4013      	ands	r3, r2
 80005bc:	9305      	str	r3, [sp, #20]
 80005be:	9a07      	ldr	r2, [sp, #28]
 80005c0:	9b03      	ldr	r3, [sp, #12]
 80005c2:	fa02 f303 	lsl.w	r3, r2, r3
 80005c6:	9a05      	ldr	r2, [sp, #20]
 80005c8:	4313      	orrs	r3, r2
 80005ca:	9305      	str	r3, [sp, #20]
 80005cc:	9b00      	ldr	r3, [sp, #0]
 80005ce:	78db      	ldrb	r3, [r3, #3]
 80005d0:	2b28      	cmp	r3, #40	; 0x28
 80005d2:	d105      	bne.n	80005e0 <GPIO_Init+0x144>
 80005d4:	9b06      	ldr	r3, [sp, #24]
 80005d6:	3308      	adds	r3, #8
 80005d8:	2201      	movs	r2, #1
 80005da:	409a      	lsls	r2, r3
 80005dc:	9b01      	ldr	r3, [sp, #4]
 80005de:	615a      	str	r2, [r3, #20]
 80005e0:	9b00      	ldr	r3, [sp, #0]
 80005e2:	78db      	ldrb	r3, [r3, #3]
 80005e4:	2b48      	cmp	r3, #72	; 0x48
 80005e6:	d105      	bne.n	80005f4 <GPIO_Init+0x158>
 80005e8:	9b06      	ldr	r3, [sp, #24]
 80005ea:	3308      	adds	r3, #8
 80005ec:	2201      	movs	r2, #1
 80005ee:	409a      	lsls	r2, r3
 80005f0:	9b01      	ldr	r3, [sp, #4]
 80005f2:	611a      	str	r2, [r3, #16]
 80005f4:	9b06      	ldr	r3, [sp, #24]
 80005f6:	3301      	adds	r3, #1
 80005f8:	9306      	str	r3, [sp, #24]
 80005fa:	9b06      	ldr	r3, [sp, #24]
 80005fc:	2b07      	cmp	r3, #7
 80005fe:	d9c1      	bls.n	8000584 <GPIO_Init+0xe8>
 8000600:	9b01      	ldr	r3, [sp, #4]
 8000602:	9a05      	ldr	r2, [sp, #20]
 8000604:	605a      	str	r2, [r3, #4]
 8000606:	bf00      	nop
 8000608:	b008      	add	sp, #32
 800060a:	4770      	bx	lr

0800060c <GPIO_WriteBit>:
 800060c:	b082      	sub	sp, #8
 800060e:	9001      	str	r0, [sp, #4]
 8000610:	460b      	mov	r3, r1
 8000612:	f8ad 3002 	strh.w	r3, [sp, #2]
 8000616:	4613      	mov	r3, r2
 8000618:	f88d 3001 	strb.w	r3, [sp, #1]
 800061c:	f89d 3001 	ldrb.w	r3, [sp, #1]
 8000620:	2b00      	cmp	r3, #0
 8000622:	d004      	beq.n	800062e <GPIO_WriteBit+0x22>
 8000624:	f8bd 2002 	ldrh.w	r2, [sp, #2]
 8000628:	9b01      	ldr	r3, [sp, #4]
 800062a:	611a      	str	r2, [r3, #16]
 800062c:	e003      	b.n	8000636 <GPIO_WriteBit+0x2a>
 800062e:	f8bd 2002 	ldrh.w	r2, [sp, #2]
 8000632:	9b01      	ldr	r3, [sp, #4]
 8000634:	615a      	str	r2, [r3, #20]
 8000636:	bf00      	nop
 8000638:	b002      	add	sp, #8
 800063a:	4770      	bx	lr

0800063c <RCC_APB2PeriphClockCmd>:
 800063c:	b082      	sub	sp, #8
 800063e:	9001      	str	r0, [sp, #4]
 8000640:	460b      	mov	r3, r1
 8000642:	f88d 3003 	strb.w	r3, [sp, #3]
 8000646:	f89d 3003 	ldrb.w	r3, [sp, #3]
 800064a:	2b00      	cmp	r3, #0
 800064c:	d006      	beq.n	800065c <RCC_APB2PeriphClockCmd+0x20>
 800064e:	4908      	ldr	r1, [pc, #32]	; (8000670 <RCC_APB2PeriphClockCmd+0x34>)
 8000650:	4b07      	ldr	r3, [pc, #28]	; (8000670 <RCC_APB2PeriphClockCmd+0x34>)
 8000652:	699a      	ldr	r2, [r3, #24]
 8000654:	9b01      	ldr	r3, [sp, #4]
 8000656:	4313      	orrs	r3, r2
 8000658:	618b      	str	r3, [r1, #24]
 800065a:	e006      	b.n	800066a <RCC_APB2PeriphClockCmd+0x2e>
 800065c:	4904      	ldr	r1, [pc, #16]	; (8000670 <RCC_APB2PeriphClockCmd+0x34>)
 800065e:	4b04      	ldr	r3, [pc, #16]	; (8000670 <RCC_APB2PeriphClockCmd+0x34>)
 8000660:	699a      	ldr	r2, [r3, #24]
 8000662:	9b01      	ldr	r3, [sp, #4]
 8000664:	43db      	mvns	r3, r3
 8000666:	4013      	ands	r3, r2
 8000668:	618b      	str	r3, [r1, #24]
 800066a:	bf00      	nop
 800066c:	b002      	add	sp, #8
 800066e:	4770      	bx	lr
 8000670:	40021000 	.word	0x40021000

08000674 <Reset_Handler>:
 8000674:	2100      	movs	r1, #0
 8000676:	e003      	b.n	8000680 <LoopCopyDataInit>

08000678 <CopyDataInit>:
 8000678:	4b0a      	ldr	r3, [pc, #40]	; (80006a4 <LoopFillZerobss+0x10>)
 800067a:	585b      	ldr	r3, [r3, r1]
 800067c:	5043      	str	r3, [r0, r1]
 800067e:	3104      	adds	r1, #4

08000680 <LoopCopyDataInit>:
 8000680:	4809      	ldr	r0, [pc, #36]	; (80006a8 <LoopFillZerobss+0x14>)
 8000682:	4b0a      	ldr	r3, [pc, #40]	; (80006ac <LoopFillZerobss+0x18>)
 8000684:	1842      	adds	r2, r0, r1
 8000686:	429a      	cmp	r2, r3
 8000688:	d3f6      	bcc.n	8000678 <CopyDataInit>
 800068a:	4a09      	ldr	r2, [pc, #36]	; (80006b0 <LoopFillZerobss+0x1c>)
 800068c:	e002      	b.n	8000694 <LoopFillZerobss>

0800068e <FillZerobss>:
 800068e:	2300      	movs	r3, #0
 8000690:	f842 3b04 	str.w	r3, [r2], #4

08000694 <LoopFillZerobss>:
 8000694:	4b07      	ldr	r3, [pc, #28]	; (80006b4 <LoopFillZerobss+0x20>)
 8000696:	429a      	cmp	r2, r3
 8000698:	d3f9      	bcc.n	800068e <FillZerobss>
 800069a:	f7ff fe49 	bl	8000330 <SystemInit>
 800069e:	f7ff fe03 	bl	80002a8 <main>
 80006a2:	4770      	bx	lr
 80006a4:	080007d4 	.word	0x080007d4
 80006a8:	20000000 	.word	0x20000000
 80006ac:	20000428 	.word	0x20000428
 80006b0:	20000428 	.word	0x20000428
 80006b4:	20000448 	.word	0x20000448

080006b8 <ADC1_2_IRQHandler>:
 80006b8:	e7fe      	b.n	80006b8 <ADC1_2_IRQHandler>
	...

080006bc <register_fini>:
 80006bc:	4b02      	ldr	r3, [pc, #8]	; (80006c8 <register_fini+0xc>)
 80006be:	b113      	cbz	r3, 80006c6 <register_fini+0xa>
 80006c0:	4802      	ldr	r0, [pc, #8]	; (80006cc <register_fini+0x10>)
 80006c2:	f000 b805 	b.w	80006d0 <atexit>
 80006c6:	4770      	bx	lr
 80006c8:	00000000 	.word	0x00000000
 80006cc:	080006dd 	.word	0x080006dd

080006d0 <atexit>:
 80006d0:	2300      	movs	r3, #0
 80006d2:	4601      	mov	r1, r0
 80006d4:	461a      	mov	r2, r3
 80006d6:	4618      	mov	r0, r3
 80006d8:	f000 b814 	b.w	8000704 <__register_exitproc>

080006dc <__libc_fini_array>:
 80006dc:	b538      	push	{r3, r4, r5, lr}
 80006de:	4d07      	ldr	r5, [pc, #28]	; (80006fc <__libc_fini_array+0x20>)
 80006e0:	4c07      	ldr	r4, [pc, #28]	; (8000700 <__libc_fini_array+0x24>)
 80006e2:	1b2c      	subs	r4, r5, r4
 80006e4:	10a4      	asrs	r4, r4, #2
 80006e6:	d005      	beq.n	80006f4 <__libc_fini_array+0x18>
 80006e8:	3c01      	subs	r4, #1
 80006ea:	f855 3d04 	ldr.w	r3, [r5, #-4]!
 80006ee:	4798      	blx	r3
 80006f0:	2c00      	cmp	r4, #0
 80006f2:	d1f9      	bne.n	80006e8 <__libc_fini_array+0xc>
 80006f4:	e8bd 4038 	ldmia.w	sp!, {r3, r4, r5, lr}
 80006f8:	f000 b860 	b.w	80007bc <_fini>
 80006fc:	080007d4 	.word	0x080007d4
 8000700:	080007d0 	.word	0x080007d0

08000704 <__register_exitproc>:
 8000704:	e92d 47f0 	stmdb	sp!, {r4, r5, r6, r7, r8, r9, sl, lr}
 8000708:	4c25      	ldr	r4, [pc, #148]	; (80007a0 <__register_exitproc+0x9c>)
 800070a:	4606      	mov	r6, r0
 800070c:	6825      	ldr	r5, [r4, #0]
 800070e:	4688      	mov	r8, r1
 8000710:	f8d5 4148 	ldr.w	r4, [r5, #328]	; 0x148
 8000714:	4692      	mov	sl, r2
 8000716:	4699      	mov	r9, r3
 8000718:	b3c4      	cbz	r4, 800078c <__register_exitproc+0x88>
 800071a:	6860      	ldr	r0, [r4, #4]
 800071c:	281f      	cmp	r0, #31
 800071e:	dc17      	bgt.n	8000750 <__register_exitproc+0x4c>
 8000720:	1c41      	adds	r1, r0, #1
 8000722:	b176      	cbz	r6, 8000742 <__register_exitproc+0x3e>
 8000724:	eb04 0380 	add.w	r3, r4, r0, lsl #2
 8000728:	f8c3 a088 	str.w	sl, [r3, #136]	; 0x88
 800072c:	f8d4 5188 	ldr.w	r5, [r4, #392]	; 0x188
 8000730:	2201      	movs	r2, #1
 8000732:	4082      	lsls	r2, r0
 8000734:	4315      	orrs	r5, r2
 8000736:	2e02      	cmp	r6, #2
 8000738:	f8c4 5188 	str.w	r5, [r4, #392]	; 0x188
 800073c:	f8c3 9108 	str.w	r9, [r3, #264]	; 0x108
 8000740:	d01e      	beq.n	8000780 <__register_exitproc+0x7c>
 8000742:	1c83      	adds	r3, r0, #2
 8000744:	6061      	str	r1, [r4, #4]
 8000746:	2000      	movs	r0, #0
 8000748:	f844 8023 	str.w	r8, [r4, r3, lsl #2]
 800074c:	e8bd 87f0 	ldmia.w	sp!, {r4, r5, r6, r7, r8, r9, sl, pc}
 8000750:	4b14      	ldr	r3, [pc, #80]	; (80007a4 <__register_exitproc+0xa0>)
 8000752:	b303      	cbz	r3, 8000796 <__register_exitproc+0x92>
 8000754:	f44f 70c8 	mov.w	r0, #400	; 0x190
 8000758:	f3af 8000 	nop.w
 800075c:	4604      	mov	r4, r0
 800075e:	b1d0      	cbz	r0, 8000796 <__register_exitproc+0x92>
 8000760:	f8d5 3148 	ldr.w	r3, [r5, #328]	; 0x148
 8000764:	2700      	movs	r7, #0
 8000766:	e884 0088 	stmia.w	r4, {r3, r7}
 800076a:	4638      	mov	r0, r7
 800076c:	f8c5 4148 	str.w	r4, [r5, #328]	; 0x148
 8000770:	2101      	movs	r1, #1
 8000772:	f8c4 7188 	str.w	r7, [r4, #392]	; 0x188
 8000776:	f8c4 718c 	str.w	r7, [r4, #396]	; 0x18c
 800077a:	2e00      	cmp	r6, #0
 800077c:	d0e1      	beq.n	8000742 <__register_exitproc+0x3e>
 800077e:	e7d1      	b.n	8000724 <__register_exitproc+0x20>
 8000780:	f8d4 318c 	ldr.w	r3, [r4, #396]	; 0x18c
 8000784:	431a      	orrs	r2, r3
 8000786:	f8c4 218c 	str.w	r2, [r4, #396]	; 0x18c
 800078a:	e7da      	b.n	8000742 <__register_exitproc+0x3e>
 800078c:	f505 74a6 	add.w	r4, r5, #332	; 0x14c
 8000790:	f8c5 4148 	str.w	r4, [r5, #328]	; 0x148
 8000794:	e7c1      	b.n	800071a <__register_exitproc+0x16>
 8000796:	f04f 30ff 	mov.w	r0, #4294967295
 800079a:	e8bd 87f0 	ldmia.w	sp!, {r4, r5, r6, r7, r8, r9, sl, pc}
 800079e:	bf00      	nop
 80007a0:	080007ac 	.word	0x080007ac
 80007a4:	00000000 	.word	0x00000000
 80007a8:	00000043 	.word	0x00000043

080007ac <_global_impure_ptr>:
 80007ac:	20000000                                ... 

080007b0 <_init>:
 80007b0:	b5f8      	push	{r3, r4, r5, r6, r7, lr}
 80007b2:	bf00      	nop
 80007b4:	bcf8      	pop	{r3, r4, r5, r6, r7}
 80007b6:	bc08      	pop	{r3}
 80007b8:	469e      	mov	lr, r3
 80007ba:	4770      	bx	lr

080007bc <_fini>:
 80007bc:	b5f8      	push	{r3, r4, r5, r6, r7, lr}
 80007be:	bf00      	nop
 80007c0:	bcf8      	pop	{r3, r4, r5, r6, r7}
 80007c2:	bc08      	pop	{r3}
 80007c4:	469e      	mov	lr, r3
 80007c6:	4770      	bx	lr
